; Function Attrs: mustprogress uwtable
define void @_ZN6casadi8FunctionC2ERKNSt7__cxx1112basic_stringIcSt11char_traitsIcESaIcEEERKSt6vectorINS_2MXESaISA_EESE_RKS9_IS6_SaIS6_EESI_RKSt3mapIS6_NS_11GenericTypeESt4lessIS6_ESaISt4pairIS7_SK_EEE(ptr noundef nonnull align 8 dereferenceable(8) initializes((0, 8)) %0, ptr noundef nonnull align 8 dereferenceable(32) %1, ptr noundef nonnull align 8 dereferenceable(24) %2, ptr noundef nonnull align 8 dereferenceable(24) %3, ptr noundef nonnull align 8 dereferenceable(24) %4, ptr noundef nonnull align 8 dereferenceable(24) %5, ptr noundef nonnull align 8 dereferenceable(48) %6) unnamed_addr #4 align 2 personality ptr @__gxx_personality_v0 {
  store ptr null, ptr %0, align 8, !tbaa !22
  invoke void @_ZN6casadi8Function9constructERKNSt7__cxx1112basic_stringIcSt11char_traitsIcESaIcEEERKSt6vectorINS_2MXESaISA_EESE_RKS9_IS6_SaIS6_EESI_RKSt3mapIS6_NS_11GenericTypeESt4lessIS6_ESaISt4pairIS7_SK_EEE(ptr noundef nonnull align 8 dereferenceable(8) %0, ptr noundef nonnull align 8 dereferenceable(32) %1, ptr noundef nonnull align 8 dereferenceable(24) %2, ptr noundef nonnull align 8 dereferenceable(24) %3, ptr noundef nonnull align 8 dereferenceable(24) %4, ptr noundef nonnull align 8 dereferenceable(24) %5, ptr noundef nonnull align 8 dereferenceable(48) %6)
          to label %8 unwind label %9

8:                                                ; preds = %7
  ret void

9:                                                ; preds = %7
  %10 = landingpad { ptr, i32 }
          cleanup
  invoke void @_ZN6casadi13GenericSharedINS_12SharedObjectENS_20SharedObjectInternalEE10count_downEv(ptr noundef nonnull align 8 dereferenceable(8) %0)
          to label %_ZN6casadi13GenericSharedINS_12SharedObjectENS_20SharedObjectInternalEED2Ev.exit unwind label %11

11:                                               ; preds = %9
  %12 = landingpad { ptr, i32 }
          catch ptr null
  %13 = extractvalue { ptr, i32 } %12, 0
  tail call void @__clang_call_terminate(ptr %13) #32
  unreachable

_ZN6casadi13GenericSharedINS_12SharedObjectENS_20SharedObjectInternalEED2Ev.exit: ; preds = %9
  resume { ptr, i32 } %10
}